; Function Attrs: mustprogress uwtable
define void @_ZN3nix11AutoCloseFD5closeEv(ptr noundef nonnull align 4 dereferenceable(4) %0) local_unnamed_addr #2 align 2 personality ptr @__gxx_personality_v0 {
  %2 = load i32, ptr %0, align 4
  %.not = icmp eq i32 %2, -1
  br i1 %.not, label %12, label %3

3:                                                ; preds = %1
  %4 = tail call i32 @close(i32 noundef %2)
  %5 = icmp eq i32 %4, -1
  br i1 %5, label %6, label %11

6:                                                ; preds = %3
  %7 = tail call ptr @__cxa_allocate_exception(i64 384) #29
  invoke void @_ZN3nix8SysErrorC2IJA28_ciEEEDpRKT_(ptr noundef nonnull align 8 dereferenceable(380) %7, ptr noundef nonnull align 1 dereferenceable(28) @.str.9, ptr noundef nonnull align 4 dereferenceable(4) %0)
          to label %8 unwind label %9

8:                                                ; preds = %6
  tail call void @__cxa_throw(ptr nonnull %7, ptr nonnull @_ZTIN3nix8SysErrorE, ptr nonnull @_ZN3nix8SysErrorD2Ev) #30
  unreachable

9:                                                ; preds = %6
  %10 = landingpad { ptr, i32 }
          cleanup
  tail call void @__cxa_free_exception(ptr %7) #29
  resume { ptr, i32 } %10

11:                                               ; preds = %3
  store i32 -1, ptr %0, align 4
  br label %12

12:                                               ; preds = %11, %1
  ret void
}